; Function Attrs: mustprogress uwtable
define noundef ptr @_ZN5folly15getHugePageSizeEm(i64 noundef %0) local_unnamed_addr #3 personality ptr @__gxx_personality_v0 {
  %2 = load atomic i8, ptr @_ZGVZN5folly16getHugePageSizesEvE5sizes acquire, align 8
  %3 = icmp eq i8 %2, 0
  br i1 %3, label %4, label %_ZN5folly16getHugePageSizesEv.exit, !prof !19

4:                                                ; preds = %1
  %5 = tail call i32 @__cxa_guard_acquire(ptr nonnull @_ZGVZN5folly16getHugePageSizesEvE5sizes) #32
  %.not.i = icmp eq i32 %5, 0
  br i1 %.not.i, label %_ZN5folly16getHugePageSizesEv.exit, label %6

6:                                                ; preds = %4
  invoke fastcc void @_ZN5folly12_GLOBAL__N_117readHugePageSizesEv()
          to label %7 unwind label %9

7:                                                ; preds = %6
  %8 = tail call i32 @__cxa_atexit(ptr nonnull @_ZNSt6vectorIN5folly12HugePageSizeESaIS1_EED2Ev, ptr nonnull @_ZZN5folly16getHugePageSizesEvE5sizes, ptr nonnull @__dso_handle) #32
  tail call void @__cxa_guard_release(ptr nonnull @_ZGVZN5folly16getHugePageSizesEvE5sizes) #32
  br label %_ZN5folly16getHugePageSizesEv.exit

9:                                                ; preds = %6
  %10 = landingpad { ptr, i32 }
          cleanup
  tail call void @__cxa_guard_abort(ptr nonnull @_ZGVZN5folly16getHugePageSizesEvE5sizes) #32
  resume { ptr, i32 } %10

_ZN5folly16getHugePageSizesEv.exit:               ; preds = %1, %4, %7
  %11 = load ptr, ptr @_ZZN5folly16getHugePageSizesEvE5sizes, align 8, !tbaa !85
  %12 = load ptr, ptr getelementptr inbounds nuw (i8, ptr @_ZZN5folly16getHugePageSizesEvE5sizes, i64 8), align 8, !tbaa !85
  %.not19 = icmp eq ptr %11, %12
  br i1 %.not19, label %.thread, label %.lr.ph

.lr.ph:                                           ; preds = %_ZN5folly16getHugePageSizesEv.exit
  %13 = icmp eq i64 %0, 0
  br i1 %13, label %.lr.ph.split.us, label %.lr.ph.split

.lr.ph.split.us:                                  ; preds = %.lr.ph, %17
  %.sroa.014.020.us = phi ptr [ %18, %17 ], [ %11, %.lr.ph ]
  %14 = getelementptr inbounds nuw i8, ptr %.sroa.014.020.us, i64 16
  %15 = load i64, ptr %14, align 8, !tbaa !18
  %16 = icmp eq i64 %15, 0
  br i1 %16, label %17, label %.thread

17:                                               ; preds = %.lr.ph.split.us
  %18 = getelementptr inbounds nuw i8, ptr %.sroa.014.020.us, i64 48
  %.not.us = icmp eq ptr %18, %12
  br i1 %.not.us, label %.thread, label %.lr.ph.split.us

.lr.ph.split:                                     ; preds = %.lr.ph, %25
  %.sroa.014.020 = phi ptr [ %26, %25 ], [ %11, %.lr.ph ]
  %19 = getelementptr inbounds nuw i8, ptr %.sroa.014.020, i64 16
  %20 = load i64, ptr %19, align 8, !tbaa !18
  %21 = icmp eq i64 %20, 0
  br i1 %21, label %25, label %22

22:                                               ; preds = %.lr.ph.split
  %23 = load i64, ptr %.sroa.014.020, align 8, !tbaa !78
  %24 = icmp eq i64 %0, %23
  br i1 %24, label %.thread, label %25

25:                                               ; preds = %.lr.ph.split, %22
  %26 = getelementptr inbounds nuw i8, ptr %.sroa.014.020, i64 48
  %.not = icmp eq ptr %26, %12
  br i1 %.not, label %.thread, label %.lr.ph.split

.thread:                                          ; preds = %25, %22, %17, %.lr.ph.split.us, %_ZN5folly16getHugePageSizesEv.exit
  %spec.select = phi ptr [ null, %_ZN5folly16getHugePageSizesEv.exit ], [ %.sroa.014.020.us, %.lr.ph.split.us ], [ null, %17 ], [ %.sroa.014.020, %22 ], [ null, %25 ]
  ret ptr %spec.select
}